MPASM 5.87                          MAIN.ASM   10-13-2021  22:40:19         PAGE  1


LOC  OBJECT CODE     LINE SOURCE TEXT
  VALUE

                      00001 ;************************************************************************
                      00002 ;* Nom de fichier:  *
                      00003 ;* Date: XX-XX-XXXX *
                      00004 ;* *
                      00005 ;* Auteur:  *
                      00006 ;* Haute Ecole Louvain en Hainaut *
                      00007 ;************************************************************************
                      00008 ;* Fichiers nécessaires: aucun *
                      00009 ;************************************************************************
                      00010 ;* Notes: *
                      00011 ;************************************************************************
                      00012     list p=16F84, f=INHX8M ; directive pour definir le processeur
                      00013     list c=90, n=60 ; directives pour le listing
                      00014     #include <p16F84a.inc> ; incorporation variables spécifiqu
                            es
                      00001         LIST
                      00002 
                      00003 ;=============================================================
                            =============
                      00004 ; Build date : Jan 06 2020
                      00005 ;  MPASM PIC16F84A processor include
                      00006 ; 
                      00007 ;  (c) Copyright 1999-2020 Microchip Technology, All rights re
                            served
                      00008 ;=============================================================
                            =============
                      00009 
                      00209         LIST
                      00015     errorlevel -302 ; pas d'avertissements de bank
                      00016     errorlevel -305 ; pas d'avertissements de fdest
                      00017 
2007   3FF2           00018     __config _CP_OFF & _WDT_OFF & _PWRTE_ON & _HS_OSC
                      00019 
                      00020 ;*************************************************************
                            ***********
                      00021 ;* Définitions et Variables *
                      00022     #DEFINE led1_ON b'11111111' ;Define c'est comme déclarer d
                            es constantes
                      00023     #DEFINE led1_OFF b'00000000'
                      00024     #DEFINE Button_RB1_PRESSED  b'00000000'
                      00025     #DEFINE Button_RB1_RELEASED b'00000001'
                      00026     ; Quand y'a un # (devant include et define) c'est une dire
                            ctive de 
                      00027     ;précompilation càd que c'est pas le programme qui fait la
                             commande, c'est 
                      00028     ;une commande pour le compilateur
                      00029 ;*************************************************************
                            ***********
                      00030     cblock 0x020
                      00031 ; déclaration de variables
  00000020            00032 IS_LED_BLINKING,d1,d2,NB_BUTTON_CHECK
                      00033     endc   
                      00034  ;equ
                      00035 ;*************************************************************
MPASM 5.87                          MAIN.ASM   10-13-2021  22:40:19         PAGE  2


LOC  OBJECT CODE     LINE SOURCE TEXT
  VALUE

                            ***********
                      00036 ;* Programme principal *
                      00037 ;*************************************************************
                            ***********
                      00038 
                      00039 ;    cpu equates (memory map)
                      00040     ;myPortB    equ    0x06 ;Definit l'addresse du portB quelq
                            ue soit la bank 
                      00041                             ;dans laquelle je me trouve j'ai l
                            e droit d'utiliser PORTB
                      00042     ;myPortA    equ    0x05 ;Definit l'addresse du portA
                      00043     ORG 0x000 ; vecteur reset
                      00044 ;*************************************************************
                            ***********
                      00045  
0000                  00046 start
                      00047     
                      00048 ;*************************************************************
                            ***********   
                      00049 ;Initialisation PortB et PortA p15
0000   1283           00050     BCF STATUS, RP0         ;on clear le bit 5 de STATUS, ce q
                            ui permet de selectionner bank0
0001   0186           00051     CLRF PORTB              ; initialise portB avec un clear d
                            es outputs
0002   0185           00052     CLRF PORTA
0003   1683           00053     BSF STATUS, RP0         ; On set le bit 5 de STATUS à 1, d
                            onc bank1 est selectionnée    
                      00054 ; Partie qui dit que RB7 à RB0 sont des outputs
0004   3000           00055     MOVLW 0x00              ;0x00 = hexa / b'0' = binaire / 0 
                            = decimal on doit préciser le système de numération
0005   0086           00056     MOVWF TRISB             ; on met 0x00 dans TRISB, ce qui m
                            et PORTB en output
                      00057 ;Partie qui dit que RA4 à RA0 sont des inputs
0006   3007           00058     MOVLW b'00000111'       ;0x01 = input
0007   0085           00059     MOVWF TRISA             ;on met 1 dans trisA : input
                      00060     
0008   1283           00061     BCF STATUS, RP0         ;On repasse dans la bank0 pour pou
                            voir utiliser PORTA et B sans utiliser les trucs à la ligne 40
                      00062 ;*************************************************************
                            ***********
                      00063 ;*************************************************************
                            *********** 
0009                  00064 MAIN
0009   2???           00065     CALL CHECK_RA0
000A   1820           00066     BTFSC IS_LED_BLINKING, 0
000B   2???           00067     CALL BLINK_ALL_LEDS_ONCE
000C   2???           00068     GOTO MAIN
                      00069     
000D                  00070 CHECK_RA0               ;Subroutine qui permet d'allumer/étein
                            dre la led
000D   1C05           00071     BTFSS PORTA,RA0     ;On teste les bits qu'on a dans f (don
                            c PORTA), s'ils sont =1 on skip l'instruction suivante immédia
                            te et on va à celle d'après
000E   0008           00072     RETURN              ;Return execute l'instruction après le
MPASM 5.87                          MAIN.ASM   10-13-2021  22:40:19         PAGE  3


LOC  OBJECT CODE     LINE SOURCE TEXT
  VALUE

                             call de la fonction CHECK_RA0
                      00073                         ;Donc là si les bits PORTA = 0 on vien
                            t ici, si les bits PORTA = 1 on la saute
000F   1820           00074     BTFSC IS_LED_BLINKING,0     ;
0010   2???           00075     GOTO STOP_LED_BLINKING      ;
0011                  00076 START_LED_BLINKING
0011   2???           00077     CALL BOUNCING_BUTTON_SECURITY
0012   2???           00078     CALL SET_IS_LED_BLINKING
0013   2???           00079     GOTO MAIN
0014                  00080 STOP_LED_BLINKING
0014   2???           00081     CALL BOUNCING_BUTTON_SECURITY
0015   2???           00082     CALL CLEAR_IS_LED_BLINKING
0016   2???           00083     CALL LIGHT_ON_PORTB
0017   2???           00084     GOTO MAIN
                      00085     
0018                  00086 SET_IS_LED_BLINKING
0018   3001           00087     MOVLW 0x01
0019   00A0           00088     MOVWF IS_LED_BLINKING
001A   0008           00089     RETURN
                      00090     
001B                  00091 CLEAR_IS_LED_BLINKING
001B   3000           00092     MOVLW 0x00
001C   00A0           00093     MOVWF IS_LED_BLINKING
001D   0008           00094     RETURN
                      00095     
001E                  00096 BOUNCING_BUTTON_SECURITY
001E   1805           00097     BTFSC PORTA,RA0     ;si les bits de PORTA=0 on skip l'inst
                            ruction suivante immédiate (le bouton n'est pas appuyé donc on
                             allume pas les leds)
001F   2???           00098     GOTO BOUNCING_BUTTON_SECURITY
0020   0008           00099     RETURN
                      00100 
0021                  00101 BLINK_ALL_LEDS_ONCE
0021   2???           00102     CALL LIGHT_ON_PORTB
0022   2???           00103     CALL DELAY_WITH_CHECK_BUTTON
0023   2???           00104     CALL LIGHT_OFF_PORTB
0024   2???           00105     CALL DELAY_WITH_CHECK_BUTTON
0025   0008           00106     RETURN
                      00107 
0026                  00108 LIGHT_ON_PORTB
0026   30FF           00109     MOVLW b'11111111'   ; 
0027   0086           00110     MOVWF PORTB         ; 
0028   0008           00111     RETURN
                      00112     
0029                  00113 LIGHT_OFF_PORTB
0029   3000           00114     MOVLW b'00000000'   ; 
002A   0086           00115     MOVWF PORTB         ; 
002B   0008           00116     RETURN    
                      00117     
002C                  00118 DELAY_WITH_CHECK_BUTTON
002C   3020           00119     MOVLW 0x20
002D   00A3           00120     MOVWF NB_BUTTON_CHECK
002E                  00121 DELAY_WITH_CHECK_BUTTON_0
002E   0BA3           00122     DECFSZ NB_BUTTON_CHECK,f
MPASM 5.87                          MAIN.ASM   10-13-2021  22:40:19         PAGE  4


LOC  OBJECT CODE     LINE SOURCE TEXT
  VALUE

002F   2???           00123     GOTO DELAY_WITH_CHECK_BUTTON_CHECK
0030   0008           00124     RETURN
0031                  00125 DELAY_WITH_CHECK_BUTTON_CHECK
0031   2???           00126     CALL DELAY
0032   2???           00127     CALL CHECK_RA0
0033   2???           00128     GOTO DELAY_WITH_CHECK_BUTTON_0
                      00129 
0034                  00130 DELAY
0034   30E7           00131     MOVLW       0xE7
0035   00A1           00132     MOVWF       d1
0036   3004           00133     MOVLW       0x04
0037   00A2           00134     MOVWF       d2
0038                  00135 DELAY_0
0038   0BA1           00136     DECFSZ      d1, f
0039   2???           00137     GOTO        $+2
003A   0BA2           00138     DECFSZ      d2, f
003B   2???           00139     GOTO        DELAY_0
003C   2???           00140     GOTO        $+1
003D   0008           00141     RETURN
Warning[205]: Found directive in column 1. (END)
3FF2                  00142 END
MPASM 5.87                          MAIN.ASM   10-13-2021  22:40:19         PAGE  5


SYMBOL TABLE
  LABEL                             VALUE 

BLINK_ALL_LEDS_ONCE               00000021
BOUNCING_BUTTON_SECURITY          0000001E
Button_RB1_PRESSED                b'00000000'
Button_RB1_RELEASED               b'00000001'
C                                 00000000
CHECK_RA0                         0000000D
CLEAR_IS_LED_BLINKING             0000001B
DC                                00000001
DELAY                             00000034
DELAY_0                           00000038
DELAY_WITH_CHECK_BUTTON           0000002C
DELAY_WITH_CHECK_BUTTON_0         0000002E
DELAY_WITH_CHECK_BUTTON_CHECK     00000031
EEADR                             00000009
EECON1                            00000088
EECON2                            00000089
EEDATA                            00000008
EEIE                              00000006
EEIF                              00000004
F                                 00000001
FSR                               00000004
GIE                               00000007
INDF                              00000000
INTCON                            0000000B
INTE                              00000004
INTEDG                            00000006
INTF                              00000001
IRP                               00000007
IS_LED_BLINKING                   00000020
LIGHT_OFF_PORTB                   00000029
LIGHT_ON_PORTB                    00000026
MAIN                              00000009
NB_BUTTON_CHECK                   00000023
NOT_PD                            00000003
NOT_RBPU                          00000007
NOT_TO                            00000004
OPTION_REG                        00000081
PCL                               00000002
PCLATH                            0000000A
PORTA                             00000005
PORTB                             00000006
PS0                               00000000
PS1                               00000001
PS2                               00000002
PSA                               00000003
RA0                               00000000
RA1                               00000001
RA2                               00000002
RA3                               00000003
RA4                               00000004
RB0                               00000000
RB1                               00000001
RB2                               00000002
RB3                               00000003
MPASM 5.87                          MAIN.ASM   10-13-2021  22:40:19         PAGE  6


SYMBOL TABLE
  LABEL                             VALUE 

RB4                               00000004
RB5                               00000005
RB6                               00000006
RB7                               00000007
RBIE                              00000003
RBIF                              00000000
RD                                00000000
RP0                               00000005
RP1                               00000006
SET_IS_LED_BLINKING               00000018
START_LED_BLINKING                00000011
STATUS                            00000003
STOP_LED_BLINKING                 00000014
T0CS                              00000005
T0IE                              00000005
T0IF                              00000002
T0SE                              00000004
TMR0                              00000001
TMR0IE                            00000005
TMR0IF                            00000002
TRISA                             00000085
TRISA0                            00000000
TRISA1                            00000001
TRISA2                            00000002
TRISA3                            00000003
TRISA4                            00000004
TRISB                             00000086
TRISB0                            00000000
TRISB1                            00000001
TRISB2                            00000002
TRISB3                            00000003
TRISB4                            00000004
TRISB5                            00000005
TRISB6                            00000006
TRISB7                            00000007
W                                 00000000
WR                                00000001
WREN                              00000002
WRERR                             00000003
Z                                 00000002
_.org_0_0039                      00000039
_.org_0_003C                      0000003C
_CONFIG                           00002007
_CP_OFF                           00003FFF
_CP_ON                            0000000F
_DEVID1                           00002006
_FOSC_EXTRC                       00003FFF
_FOSC_HS                          00003FFE
_FOSC_LP                          00003FFC
_FOSC_XT                          00003FFD
_HS_OSC                           00003FFE
_IDLOC0                           00002000
_IDLOC1                           00002001
_IDLOC2                           00002002
MPASM 5.87                          MAIN.ASM   10-13-2021  22:40:19         PAGE  7


SYMBOL TABLE
  LABEL                             VALUE 

_IDLOC3                           00002003
_LP_OSC                           00003FFC
_PWRTE_OFF                        00003FFF
_PWRTE_ON                         00003FF7
_RC_OSC                           00003FFF
_WDTE_OFF                         00003FFB
_WDTE_ON                          00003FFF
_WDT_OFF                          00003FFB
_WDT_ON                           00003FFF
_XT_OSC                           00003FFD
__16F84A                          00000001
d1                                00000021
d2                                00000022
led1_OFF                          b'00000000'
led1_ON                           b'11111111'
start                             00000000

Errors   :     0
Warnings :     1 reported,     0 suppressed
Messages :     0 reported,     2 suppressed

